; Function Attrs: nounwind uwtable
define void @fake_rand_set_public_private_callbacks(ptr noundef %0, ptr noundef %1) local_unnamed_addr #0 {
  %3 = tail call ptr @RAND_get0_private(ptr noundef %0) #8
  %.not.i = icmp eq ptr %3, null
  br i1 %.not.i, label %fake_rand_set_callback.exit, label %4

4:                                                ; preds = %2
  %5 = getelementptr inbounds nuw i8, ptr %3, i64 8
  %6 = load ptr, ptr %5, align 8, !tbaa !3
  store ptr %1, ptr %6, align 8, !tbaa !19
  br label %fake_rand_set_callback.exit

fake_rand_set_callback.exit:                      ; preds = %2, %4
  %7 = tail call ptr @RAND_get0_public(ptr noundef %0) #8
  %.not.i4 = icmp eq ptr %7, null
  br i1 %.not.i4, label %fake_rand_set_callback.exit5, label %8

8:                                                ; preds = %fake_rand_set_callback.exit
  %9 = getelementptr inbounds nuw i8, ptr %7, i64 8
  %10 = load ptr, ptr %9, align 8, !tbaa !3
  store ptr %1, ptr %10, align 8, !tbaa !19
  br label %fake_rand_set_callback.exit5

fake_rand_set_callback.exit5:                     ; preds = %fake_rand_set_callback.exit, %8
  ret void
}